target datalayout = "e-m:e-p270:32:32-p271:32:32-p272:64:64-i64:64-i128:128-f80:128-n8:16:32:64-S128"
target triple = "x86_64-pc-linux-gnu"

%struct.AVInteger = type { [8 x i16] }

; Function Attrs: nounwind willreturn memory(none) uwtable
define { i64, i64 } @av_add_i(i64 %0, i64 %1, i64 %2, i64 %3) #0 {
  %5 = alloca %struct.AVInteger, align 2
  %6 = alloca %struct.AVInteger, align 2
  %7 = alloca %struct.AVInteger, align 2
  %8 = alloca i32, align 4
  %9 = alloca i32, align 4
  %10 = getelementptr inbounds nuw { i64, i64 }, ptr %6, i32 0, i32 0
  store i64 %0, ptr %10, align 2
  %11 = getelementptr inbounds nuw { i64, i64 }, ptr %6, i32 0, i32 1
  store i64 %1, ptr %11, align 2
  %12 = getelementptr inbounds nuw { i64, i64 }, ptr %7, i32 0, i32 0
  store i64 %2, ptr %12, align 2
  %13 = getelementptr inbounds nuw { i64, i64 }, ptr %7, i32 0, i32 1
  store i64 %3, ptr %13, align 2
  call void @llvm.lifetime.start.p0(i64 4, ptr %8) #6
  call void @llvm.lifetime.start.p0(i64 4, ptr %9) #6
  store i32 0, ptr %9, align 4, !tbaa !4
  store i32 0, ptr %8, align 4, !tbaa !4
  br label %14

14:                                               ; preds = %40, %4
  %15 = load i32, ptr %8, align 4, !tbaa !4
  %16 = icmp slt i32 %15, 8
  br i1 %16, label %17, label %43

17:                                               ; preds = %14
  %18 = load i32, ptr %9, align 4, !tbaa !4
  %19 = ashr i32 %18, 16
  %20 = getelementptr inbounds nuw %struct.AVInteger, ptr %6, i32 0, i32 0
  %21 = load i32, ptr %8, align 4, !tbaa !4
  %22 = sext i32 %21 to i64
  %23 = getelementptr inbounds [8 x i16], ptr %20, i64 0, i64 %22
  %24 = load i16, ptr %23, align 2, !tbaa !8
  %25 = zext i16 %24 to i32
  %26 = add nsw i32 %19, %25
  %27 = getelementptr inbounds nuw %struct.AVInteger, ptr %7, i32 0, i32 0
  %28 = load i32, ptr %8, align 4, !tbaa !4
  %29 = sext i32 %28 to i64
  %30 = getelementptr inbounds [8 x i16], ptr %27, i64 0, i64 %29
  %31 = load i16, ptr %30, align 2, !tbaa !8
  %32 = zext i16 %31 to i32
  %33 = add nsw i32 %26, %32
  store i32 %33, ptr %9, align 4, !tbaa !4
  %34 = load i32, ptr %9, align 4, !tbaa !4
  %35 = trunc i32 %34 to i16
  %36 = getelementptr inbounds nuw %struct.AVInteger, ptr %6, i32 0, i32 0
  %37 = load i32, ptr %8, align 4, !tbaa !4
  %38 = sext i32 %37 to i64
  %39 = getelementptr inbounds [8 x i16], ptr %36, i64 0, i64 %38
  store i16 %35, ptr %39, align 2, !tbaa !8
  br label %40

40:                                               ; preds = %17
  %41 = load i32, ptr %8, align 4, !tbaa !4
  %42 = add nsw i32 %41, 1
  store i32 %42, ptr %8, align 4, !tbaa !4
  br label %14, !llvm.loop !10

43:                                               ; preds = %14
  call void @llvm.memcpy.p0.p0.i64(ptr align 2 %5, ptr align 2 %6, i64 16, i1 false), !tbaa.struct !12
  call void @llvm.lifetime.end.p0(i64 4, ptr %9) #6
  call void @llvm.lifetime.end.p0(i64 4, ptr %8) #6
  %44 = getelementptr inbounds nuw %struct.AVInteger, ptr %5, i32 0, i32 0
  %45 = load { i64, i64 }, ptr %44, align 2
  ret { i64, i64 } %45
}