; Function Attrs: mustprogress nofree norecurse nosync nounwind willreturn memory(none) uwtable
define { i64, i64 } @av_add_i(i64 %0, i64 %1, i64 %2, i64 %3) local_unnamed_addr #0 {
  %5 = alloca %struct.AVInteger, align 8
  %6 = alloca %struct.AVInteger, align 8
  store i64 %0, ptr %5, align 8
  %7 = getelementptr inbounds nuw i8, ptr %5, i64 8
  store i64 %1, ptr %7, align 8
  store i64 %2, ptr %6, align 8
  %8 = getelementptr inbounds nuw i8, ptr %6, i64 8
  store i64 %3, ptr %8, align 8
  br label %9

9:                                                ; preds = %4, %9
  %indvars.iv = phi i64 [ 0, %4 ], [ %indvars.iv.next, %9 ]
  %.09 = phi i32 [ 0, %4 ], [ %18, %9 ]
  %10 = lshr i32 %.09, 16
  %11 = getelementptr inbounds nuw [8 x i16], ptr %5, i64 0, i64 %indvars.iv
  %12 = load i16, ptr %11, align 2, !tbaa !4
  %13 = zext i16 %12 to i32
  %14 = add nuw nsw i32 %10, %13
  %15 = getelementptr inbounds nuw [8 x i16], ptr %6, i64 0, i64 %indvars.iv
  %16 = load i16, ptr %15, align 2, !tbaa !4
  %17 = zext i16 %16 to i32
  %18 = add nuw nsw i32 %14, %17
  %19 = trunc i32 %18 to i16
  store i16 %19, ptr %11, align 2, !tbaa !4
  %indvars.iv.next = add nuw nsw i64 %indvars.iv, 1
  %exitcond.not = icmp eq i64 %indvars.iv.next, 8
  br i1 %exitcond.not, label %20, label %9, !llvm.loop !8

20:                                               ; preds = %9
  %.sroa.0.0.copyload = load i64, ptr %5, align 8
  %.sroa.2.0.copyload = load i64, ptr %7, align 8, !tbaa !10
  %.fca.0.insert = insertvalue { i64, i64 } poison, i64 %.sroa.0.0.copyload, 0
  %.fca.1.insert = insertvalue { i64, i64 } %.fca.0.insert, i64 %.sroa.2.0.copyload, 1
  ret { i64, i64 } %.fca.1.insert
}